target datalayout = "e-m:e-p270:32:32-p271:32:32-p272:64:64-i64:64-i128:128-f80:128-n8:16:32:64-S128"
target triple = "x86_64-pc-linux-gnu"

; Function Attrs: nounwind uwtable
define internal i32 @ct_x509_get_ext(ptr noundef %0, i32 noundef %1, ptr noundef %2) #0 {
  %4 = alloca ptr, align 8
  %5 = alloca i32, align 4
  %6 = alloca ptr, align 8
  %7 = alloca i32, align 4
  store ptr %0, ptr %4, align 8, !tbaa !22
  store i32 %1, ptr %5, align 4, !tbaa !24
  store ptr %2, ptr %6, align 8, !tbaa !28
  call void @llvm.lifetime.start.p0(i64 4, ptr %7) #3
  %8 = load ptr, ptr %4, align 8, !tbaa !22
  %9 = load i32, ptr %5, align 4, !tbaa !24
  %10 = call i32 @X509_get_ext_by_NID(ptr noundef %8, i32 noundef %9, i32 noundef -1)
  store i32 %10, ptr %7, align 4, !tbaa !24
  %11 = load ptr, ptr %6, align 8, !tbaa !28
  %12 = icmp ne ptr %11, null
  br i1 %12, label %13, label %26

13:                                               ; preds = %3
  %14 = load i32, ptr %7, align 4, !tbaa !24
  %15 = icmp sge i32 %14, 0
  br i1 %15, label %16, label %22

16:                                               ; preds = %13
  %17 = load ptr, ptr %4, align 8, !tbaa !22
  %18 = load i32, ptr %5, align 4, !tbaa !24
  %19 = load i32, ptr %7, align 4, !tbaa !24
  %20 = call i32 @X509_get_ext_by_NID(ptr noundef %17, i32 noundef %18, i32 noundef %19)
  %21 = icmp sge i32 %20, 0
  br label %22

22:                                               ; preds = %16, %13
  %23 = phi i1 [ false, %13 ], [ %21, %16 ]
  %24 = zext i1 %23 to i32
  %25 = load ptr, ptr %6, align 8, !tbaa !28
  store i32 %24, ptr %25, align 4, !tbaa !24
  br label %26

26:                                               ; preds = %22, %3
  %27 = load i32, ptr %7, align 4, !tbaa !24
  call void @llvm.lifetime.end.p0(i64 4, ptr %7) #3
  ret i32 %27
}

; Function Attrs: nounwind uwtable
define internal i32 @ct_x509_cert_fixup(ptr noundef %0, ptr noundef %1) #0 {
  %3 = alloca i32, align 4
  %4 = alloca ptr, align 8
  %5 = alloca ptr, align 8
  %6 = alloca i32, align 4
  %7 = alloca i32, align 4
  %8 = alloca i32, align 4
  %9 = alloca i32, align 4
  %10 = alloca i32, align 4
  %11 = alloca ptr, align 8
  %12 = alloca ptr, align 8
  %13 = alloca ptr, align 8
  store ptr %0, ptr %4, align 8, !tbaa !22
  store ptr %1, ptr %5, align 8, !tbaa !22
  call void @llvm.lifetime.start.p0(i64 4, ptr %6) #3
  call void @llvm.lifetime.start.p0(i64 4, ptr %7) #3
  call void @llvm.lifetime.start.p0(i64 4, ptr %8) #3
  call void @llvm.lifetime.start.p0(i64 4, ptr %9) #3
  %14 = load ptr, ptr %5, align 8, !tbaa !22
  %15 = icmp eq ptr %14, null
  br i1 %15, label %16, label %17

16:                                               ; preds = %2
  store i32 1, ptr %3, align 4
  store i32 1, ptr %10, align 4
  br label %88

17:                                               ; preds = %2
  %18 = load ptr, ptr %5, align 8, !tbaa !22
  %19 = call i32 @ct_x509_get_ext(ptr noundef %18, i32 noundef 90, ptr noundef %8)
  store i32 %19, ptr %6, align 4, !tbaa !24
  %20 = load ptr, ptr %4, align 8, !tbaa !22
  %21 = call i32 @ct_x509_get_ext(ptr noundef %20, i32 noundef 90, ptr noundef %9)
  store i32 %21, ptr %7, align 4, !tbaa !24
  %22 = load i32, ptr %6, align 4, !tbaa !24
  %23 = icmp slt i32 %22, -1
  br i1 %23, label %27, label %24

24:                                               ; preds = %17
  %25 = load i32, ptr %7, align 4, !tbaa !24
  %26 = icmp slt i32 %25, -1
  br i1 %26, label %27, label %28

27:                                               ; preds = %24, %17
  store i32 0, ptr %3, align 4
  store i32 1, ptr %10, align 4
  br label %88

28:                                               ; preds = %24
  %29 = load i32, ptr %8, align 4, !tbaa !24
  %30 = icmp ne i32 %29, 0
  br i1 %30, label %34, label %31

31:                                               ; preds = %28
  %32 = load i32, ptr %9, align 4, !tbaa !24
  %33 = icmp ne i32 %32, 0
  br i1 %33, label %34, label %35

34:                                               ; preds = %31, %28
  store i32 0, ptr %3, align 4
  store i32 1, ptr %10, align 4
  br label %88

35:                                               ; preds = %31
  %36 = load i32, ptr %6, align 4, !tbaa !24
  %37 = icmp sge i32 %36, 0
  br i1 %37, label %38, label %42

38:                                               ; preds = %35
  %39 = load i32, ptr %7, align 4, !tbaa !24
  %40 = icmp eq i32 %39, -1
  br i1 %40, label %41, label %42

41:                                               ; preds = %38
  store i32 0, ptr %3, align 4
  store i32 1, ptr %10, align 4
  br label %88

42:                                               ; preds = %38, %35
  %43 = load i32, ptr %6, align 4, !tbaa !24
  %44 = icmp eq i32 %43, -1
  br i1 %44, label %45, label %49

45:                                               ; preds = %42
  %46 = load i32, ptr %7, align 4, !tbaa !24
  %47 = icmp sge i32 %46, 0
  br i1 %47, label %48, label %49

48:                                               ; preds = %45
  store i32 0, ptr %3, align 4
  store i32 1, ptr %10, align 4
  br label %88

49:                                               ; preds = %45, %42
  %50 = load ptr, ptr %4, align 8, !tbaa !22
  %51 = load ptr, ptr %5, align 8, !tbaa !22
  %52 = call ptr @X509_get_issuer_name(ptr noundef %51)
  %53 = call i32 @X509_set_issuer_name(ptr noundef %50, ptr noundef %52)
  %54 = icmp ne i32 %53, 0
  br i1 %54, label %56, label %55

55:                                               ; preds = %49
  store i32 0, ptr %3, align 4
  store i32 1, ptr %10, align 4
  br label %88

56:                                               ; preds = %49
  %57 = load i32, ptr %6, align 4, !tbaa !24
  %58 = icmp ne i32 %57, -1
  br i1 %58, label %59, label %87

59:                                               ; preds = %56
  call void @llvm.lifetime.start.p0(i64 8, ptr %11) #3
  %60 = load ptr, ptr %5, align 8, !tbaa !22
  %61 = load i32, ptr %6, align 4, !tbaa !24
  %62 = call ptr @X509_get_ext(ptr noundef %60, i32 noundef %61)
  store ptr %62, ptr %11, align 8, !tbaa !30
  call void @llvm.lifetime.start.p0(i64 8, ptr %12) #3
  %63 = load ptr, ptr %4, align 8, !tbaa !22
  %64 = load i32, ptr %7, align 4, !tbaa !24
  %65 = call ptr @X509_get_ext(ptr noundef %63, i32 noundef %64)
  store ptr %65, ptr %12, align 8, !tbaa !30
  call void @llvm.lifetime.start.p0(i64 8, ptr %13) #3
  %66 = load ptr, ptr %11, align 8, !tbaa !30
  %67 = icmp eq ptr %66, null
  br i1 %67, label %71, label %68

68:                                               ; preds = %59
  %69 = load ptr, ptr %12, align 8, !tbaa !30
  %70 = icmp eq ptr %69, null
  br i1 %70, label %71, label %72

71:                                               ; preds = %68, %59
  store i32 0, ptr %3, align 4
  store i32 1, ptr %10, align 4
  br label %84

72:                                               ; preds = %68
  %73 = load ptr, ptr %11, align 8, !tbaa !30
  %74 = call ptr @X509_EXTENSION_get_data(ptr noundef %73)
  store ptr %74, ptr %13, align 8, !tbaa !32
  %75 = load ptr, ptr %13, align 8, !tbaa !32
  %76 = icmp eq ptr %75, null
  br i1 %76, label %82, label %77

77:                                               ; preds = %72
  %78 = load ptr, ptr %12, align 8, !tbaa !30
  %79 = load ptr, ptr %13, align 8, !tbaa !32
  %80 = call i32 @X509_EXTENSION_set_data(ptr noundef %78, ptr noundef %79)
  %81 = icmp ne i32 %80, 0
  br i1 %81, label %83, label %82

82:                                               ; preds = %77, %72
  store i32 0, ptr %3, align 4
  store i32 1, ptr %10, align 4
  br label %84

83:                                               ; preds = %77
  store i32 0, ptr %10, align 4
  br label %84

84:                                               ; preds = %83, %82, %71
  call void @llvm.lifetime.end.p0(i64 8, ptr %13) #3
  call void @llvm.lifetime.end.p0(i64 8, ptr %12) #3
  call void @llvm.lifetime.end.p0(i64 8, ptr %11) #3
  %85 = load i32, ptr %10, align 4
  switch i32 %85, label %88 [
    i32 0, label %86
  ]

86:                                               ; preds = %84
  br label %87

87:                                               ; preds = %86, %56
  store i32 1, ptr %3, align 4
  store i32 1, ptr %10, align 4
  br label %88

88:                                               ; preds = %87, %84, %55, %48, %41, %34, %27, %16
  call void @llvm.lifetime.end.p0(i64 4, ptr %9) #3
  call void @llvm.lifetime.end.p0(i64 4, ptr %8) #3
  call void @llvm.lifetime.end.p0(i64 4, ptr %7) #3
  call void @llvm.lifetime.end.p0(i64 4, ptr %6) #3
  %89 = load i32, ptr %3, align 4
  ret i32 %89
}