; Function Attrs: nounwind uwtable
define internal fastcc range(i32 0, 2) i32 @ct_x509_cert_fixup(ptr noundef nonnull %0, ptr noundef %1) unnamed_addr #0 {
  %3 = icmp eq ptr %1, null
  br i1 %3, label %.critedge, label %4

4:                                                ; preds = %2
  %5 = tail call i32 @X509_get_ext_by_NID(ptr noundef nonnull %1, i32 noundef 90, i32 noundef -1) #4
  %6 = icmp sgt i32 %5, -1
  br i1 %6, label %7, label %ct_x509_get_ext.exit

7:                                                ; preds = %4
  %8 = tail call i32 @X509_get_ext_by_NID(ptr noundef nonnull %1, i32 noundef 90, i32 noundef %5) #4
  %9 = icmp sgt i32 %8, -1
  br label %ct_x509_get_ext.exit

ct_x509_get_ext.exit:                             ; preds = %4, %7
  %10 = phi i1 [ false, %4 ], [ %9, %7 ]
  %11 = tail call i32 @X509_get_ext_by_NID(ptr noundef nonnull %0, i32 noundef 90, i32 noundef -1) #4
  %12 = icmp sgt i32 %11, -1
  br i1 %12, label %13, label %ct_x509_get_ext.exit41

13:                                               ; preds = %ct_x509_get_ext.exit
  %14 = tail call i32 @X509_get_ext_by_NID(ptr noundef nonnull %0, i32 noundef 90, i32 noundef %11) #4
  %15 = icmp sgt i32 %14, -1
  br label %ct_x509_get_ext.exit41

ct_x509_get_ext.exit41:                           ; preds = %ct_x509_get_ext.exit, %13
  %16 = phi i1 [ false, %ct_x509_get_ext.exit ], [ %15, %13 ]
  %17 = icmp slt i32 %5, -1
  %18 = icmp slt i32 %11, -1
  %or.cond = or i1 %17, %18
  br i1 %or.cond, label %.critedge, label %19

19:                                               ; preds = %ct_x509_get_ext.exit41
  %or.cond3 = select i1 %10, i1 true, i1 %16
  %20 = icmp eq i32 %11, -1
  %or.cond5 = and i1 %6, %20
  %or.cond43 = or i1 %or.cond5, %or.cond3
  br i1 %or.cond43, label %.critedge, label %21

21:                                               ; preds = %19
  %22 = icmp eq i32 %5, -1
  %or.cond7 = and i1 %22, %12
  br i1 %or.cond7, label %.critedge, label %23

23:                                               ; preds = %21
  %24 = tail call ptr @X509_get_issuer_name(ptr noundef nonnull %1) #4
  %25 = tail call i32 @X509_set_issuer_name(ptr noundef nonnull %0, ptr noundef %24) #4
  %.not = icmp eq i32 %25, 0
  %brmerge = or i1 %22, %.not
  %not..not = xor i1 %.not, true
  br i1 %brmerge, label %.critedge, label %26

26:                                               ; preds = %23
  %27 = tail call ptr @X509_get_ext(ptr noundef nonnull %1, i32 noundef %5) #4
  %28 = tail call ptr @X509_get_ext(ptr noundef nonnull %0, i32 noundef %11) #4
  %29 = icmp eq ptr %27, null
  %30 = icmp eq ptr %28, null
  %or.cond9 = select i1 %29, i1 true, i1 %30
  br i1 %or.cond9, label %.critedge, label %31

31:                                               ; preds = %26
  %32 = tail call ptr @X509_EXTENSION_get_data(ptr noundef nonnull %27) #4
  %33 = icmp eq ptr %32, null
  br i1 %33, label %.critedge, label %34

34:                                               ; preds = %31
  %35 = tail call i32 @X509_EXTENSION_set_data(ptr noundef nonnull %28, ptr noundef nonnull %32) #4
  %.not40 = icmp ne i32 %35, 0
  br label %.critedge

.critedge:                                        ; preds = %23, %34, %26, %31, %21, %19, %ct_x509_get_ext.exit41, %2
  %.0.shrunk = phi i1 [ true, %2 ], [ false, %ct_x509_get_ext.exit41 ], [ false, %19 ], [ false, %21 ], [ %not..not, %23 ], [ false, %31 ], [ false, %26 ], [ %.not40, %34 ]
  %.0 = zext i1 %.0.shrunk to i32
  ret i32 %.0
}